Certificate:
    Data:
        Version: 3 (0x2)
        Serial Number: 7 (0x7)
        Signature Algorithm: sha1WithRSAEncryption
        Issuer: C=US, ST=Pennsylvania, L=Pittsburgh, O=15-441 Carnegie Mellon University, OU=Signing CA, CN=15-441 CMU CA/emailAddress=staff-441@cs.cmu.edu
        Validity
            Not Before: Oct  1 18:55:43 2011 GMT
            Not After : Sep 30 18:55:43 2012 GMT
        Subject: C=US, ST=Pennsylvania, L=Pittsburgh, O=weishi Corp., OU=weishi Organizational Unit, CN=swr.res.cmu.edu/emailAddress=weishi@andrew.cmu.edu
        Subject Public Key Info:
            Public Key Algorithm: rsaEncryption
            RSA Public Key: (4096 bit)
                Modulus (4096 bit):
                    00:b3:f8:c2:c8:41:fd:b4:6e:76:bc:bd:31:36:28:
                    76:91:3e:3c:73:5f:f8:79:ca:cf:30:92:ff:62:26:
                    91:0b:74:90:e6:97:be:4f:1c:b4:81:58:10:5f:b2:
                    25:d3:c9:a3:a3:90:54:2c:09:d4:31:79:f9:f2:ff:
                    e8:ed:1c:21:76:29:73:12:c5:af:01:a6:da:3a:4a:
                    18:44:95:99:cb:f1:88:ff:c9:f4:05:88:d9:9a:a6:
                    71:c4:4f:41:20:c2:3b:a9:c7:86:82:f3:ae:40:a8:
                    fc:48:e5:26:a7:e0:ed:a9:2e:7f:fb:c7:68:cc:6d:
                    35:ed:8a:6a:15:f4:fa:30:a4:69:12:a4:c9:40:de:
                    31:b5:3c:ed:f3:f6:56:55:55:0a:f9:18:14:d4:56:
                    57:f6:9d:97:a4:2b:7f:a6:41:c6:c7:0b:2b:b8:56:
                    75:db:a1:e6:3e:8b:96:ea:d4:76:8d:66:cc:67:25:
                    d3:b1:9b:4c:0e:49:91:d3:99:18:7b:61:fd:e3:1a:
                    77:40:75:1f:8c:15:57:24:42:1e:08:48:02:c2:76:
                    21:5f:a9:ab:65:42:f5:34:22:c2:b7:d9:ba:06:11:
                    32:83:2b:76:1f:5e:f4:0e:ea:2c:cb:f6:97:05:9d:
                    07:e9:75:b6:7c:ca:40:75:9d:f9:80:62:de:97:9b:
                    9c:8d:83:b6:c8:34:f2:82:fc:34:95:9b:d2:c7:0e:
                    12:5a:a9:77:79:cc:ba:2f:cc:f2:e0:b7:5c:a6:36:
                    6e:a3:d6:e1:01:96:f8:d0:bc:83:16:d9:4e:fe:2b:
                    8f:9a:3b:95:53:c9:41:e9:52:fe:6e:23:f5:73:5d:
                    db:2a:1d:a9:67:af:54:22:df:a8:df:10:f9:67:37:
                    14:34:04:d3:45:6b:44:12:5b:6b:77:c7:45:de:14:
                    70:bb:9a:6d:6a:90:2c:f4:11:51:77:74:cc:4b:18:
                    77:29:9a:b8:2a:5e:dc:fc:ae:f3:9e:8b:64:4e:5b:
                    73:61:0b:9d:ed:40:f2:07:b4:0c:c4:c6:6b:91:4f:
                    b8:46:9a:6c:5e:44:1c:f9:55:ea:69:82:2c:20:ce:
                    7b:e5:01:62:87:ec:dc:05:56:09:a7:28:8a:40:7c:
                    2f:db:8a:88:50:58:7f:61:33:ae:5c:47:f7:60:79:
                    ed:bf:b1:56:a8:5a:5f:81:ae:42:42:5c:e5:5a:0f:
                    88:97:47:04:8f:ab:42:65:ca:95:a0:89:c0:f5:e2:
                    42:b2:9c:0e:16:e6:30:d3:b4:6d:8e:5a:97:c9:e3:
                    de:2c:3c:9d:2d:12:33:5f:b8:4f:1a:aa:4b:b6:1c:
                    d3:51:99:a6:78:1b:54:ec:97:47:0e:78:f3:29:e4:
                    b6:d0:e1
                Exponent: 65537 (0x10001)
        X509v3 extensions:
            X509v3 Basic Constraints: 
                CA:FALSE
            Netscape Comment: 
                15-441 CMU CA OpenSSL Generated Certificate
            X509v3 Subject Key Identifier: 
                67:EA:A5:EF:C7:16:DE:DA:1B:7E:99:7C:11:FA:92:37:C3:C7:10:BB
            X509v3 Authority Key Identifier: 
                keyid:0D:A0:38:35:12:43:ED:C1:1C:37:33:2C:A8:C7:F7:46:5D:FD:6D:5C

    Signature Algorithm: sha1WithRSAEncryption
        36:4f:a1:59:0e:2e:57:a8:86:4e:45:3e:83:37:ac:43:d1:e8:
        bb:a2:d3:76:43:80:ea:bf:12:5b:49:be:d5:d5:62:c4:29:cf:
        a3:b8:88:c7:11:9b:4e:81:da:d2:84:39:9f:81:e9:fd:e9:21:
        04:b8:43:90:1d:b9:9f:eb:d3:77:4a:6c:2c:19:cf:0c:ce:53:
        05:1e:2b:50:a1:07:46:09:b5:b0:d3:c4:25:8a:c2:bd:16:2f:
        19:2f:af:0a:3b:0e:6e:c0:9b:81:8a:ca:8a:8a:1f:d5:90:8d:
        66:de:f5:7a:86:38:b9:56:36:6a:e9:5f:8f:cb:d9:49:f0:96:
        c3:60:08:f8:e2:77:3c:91:c9:6d:74:2a:b6:ad:0a:36:81:98:
        a7:e3:4b:d9:d0:2a:37:d7:b8:78:9b:cc:93:6a:81:25:45:a9:
        1e:c0:39:a9:19:38:03:19:79:f7:e4:2f:31:1b:cc:b7:d5:68:
        7e:47:fc:0a:3c:29:b7:60:a0:6c:24:e9:b7:ed:03:a8:8b:64:
        66:ae:44:45:c9:29:df:be:fe:4b:23:7a:8c:51:81:1a:37:aa:
        db:48:70:0c:80:c0:f0:fd:cf:c2:fe:34:ff:9e:ae:43:68:ff:
        e1:f1:df:57:22:f0:5b:35:89:b3:c7:8c:62:07:fa:22:d0:0b:
        35:6d:f4:b2:f1:60:8b:c1:05:e4:36:8a:75:c3:e3:c5:3c:bc:
        08:48:c0:16:c4:16:3f:74:50:a1:3c:e6:55:17:9e:94:0c:7d:
        37:4d:4e:02:78:75:2e:43:ee:10:7e:47:aa:cb:16:b2:ca:4c:
        b0:24:c4:d7:62:20:f6:a4:b3:eb:1d:bf:bc:8e:6b:b0:c3:dd:
        1e:d2:dd:e5:6d:ee:b4:f1:c3:96:2a:3e:c0:d7:f1:d2:7a:dc:
        04:22:e2:9c:2b:5f:56:52:66:c0:64:6e:82:f0:8d:3d:de:40:
        fa:3e:87:11:db:9f:0a:3a:29:95:e8:1a:84:8e:18:13:1a:05:
        53:ef:20:99:21:fd:cd:42:1c:89:70:ea:db:25:db:3f:f7:cc:
        2f:99:8a:7d:3a:cb:f4:43:58:60:b9:2d:7b:06:ec:c5:f1:a9:
        8a:89:94:3b:bd:7d:36:f6:93:ff:1d:99:58:40:9b:3f:43:1b:
        b9:3b:0d:5c:ba:57:cd:32:00:17:3f:6f:b8:db:b6:78:b5:c5:
        90:1e:26:e7:71:da:e5:44:14:b3:a7:7e:60:e0:ba:7e:43:27:
        25:88:e6:09:97:d3:28:db:c3:65:5b:c3:8a:2b:55:55:36:5a:
        36:e1:16:15:ef:20:7e:7d:c4:41:d9:84:f9:dd:33:f7:37:48:
        e7:25:d6:93:2d:c9:2f:d6
-----BEGIN CERTIFICATE-----
MIIGdDCCBFygAwIBAgIBBzANBgkqhkiG9w0BAQUFADCBtzELMAkGA1UEBhMCVVMx
FTATBgNVBAgTDFBlbm5zeWx2YW5pYTETMBEGA1UEBxMKUGl0dHNidXJnaDEqMCgG
A1UEChMhMTUtNDQxIENhcm5lZ2llIE1lbGxvbiBVbml2ZXJzaXR5MRMwEQYDVQQL
EwpTaWduaW5nIENBMRYwFAYDVQQDEw0xNS00NDEgQ01VIENBMSMwIQYJKoZIhvcN
AQkBFhRzdGFmZi00NDFAY3MuY211LmVkdTAeFw0xMTEwMDExODU1NDNaFw0xMjA5
MzAxODU1NDNaMIG1MQswCQYDVQQGEwJVUzEVMBMGA1UECBMMUGVubnN5bHZhbmlh
MRMwEQYDVQQHEwpQaXR0c2J1cmdoMRUwEwYDVQQKEwx3ZWlzaGkgQ29ycC4xIzAh
BgNVBAsTGndlaXNoaSBPcmdhbml6YXRpb25hbCBVbml0MRgwFgYDVQQDEw9zd3Iu
cmVzLmNtdS5lZHUxJDAiBgkqhkiG9w0BCQEWFXdlaXNoaUBhbmRyZXcuY211LmVk
dTCCAiIwDQYJKoZIhvcNAQEBBQADggIPADCCAgoCggIBALP4wshB/bRudry9MTYo
dpE+PHNf+HnKzzCS/2ImkQt0kOaXvk8ctIFYEF+yJdPJo6OQVCwJ1DF5+fL/6O0c
IXYpcxLFrwGm2jpKGESVmcvxiP/J9AWI2ZqmccRPQSDCO6nHhoLzrkCo/EjlJqfg
7akuf/vHaMxtNe2KahX0+jCkaRKkyUDeMbU87fP2VlVVCvkYFNRWV/adl6Qrf6ZB
xscLK7hWdduh5j6LlurUdo1mzGcl07GbTA5JkdOZGHth/eMad0B1H4wVVyRCHghI
AsJ2IV+pq2VC9TQiwrfZugYRMoMrdh9e9A7qLMv2lwWdB+l1tnzKQHWd+YBi3peb
nI2Dtsg08oL8NJWb0scOElqpd3nMui/M8uC3XKY2bqPW4QGW+NC8gxbZTv4rj5o7
lVPJQelS/m4j9XNd2yodqWevVCLfqN8Q+Wc3FDQE00VrRBJba3fHRd4UcLuabWqQ
LPQRUXd0zEsYdymauCpe3Pyu856LZE5bc2ELne1A8ge0DMTGa5FPuEaabF5EHPlV
6mmCLCDOe+UBYofs3AVWCacoikB8L9uKiFBYf2EzrlxH92B57b+xVqhaX4GuQkJc
5VoPiJdHBI+rQmXKlaCJwPXiQrKcDhbmMNO0bY5al8nj3iw8nS0SM1+4TxqqS7Yc
01GZpngbVOyXRw548ynkttDhAgMBAAGjgYowgYcwCQYDVR0TBAIwADA6BglghkgB
hvhCAQ0ELRYrMTUtNDQxIENNVSBDQSBPcGVuU1NMIEdlbmVyYXRlZCBDZXJ0aWZp
Y2F0ZTAdBgNVHQ4EFgQUZ+ql78cW3tobfpl8EfqSN8PHELswHwYDVR0jBBgwFoAU
DaA4NRJD7cEcNzMsqMf3Rl39bVwwDQYJKoZIhvcNAQEFBQADggIBADZPoVkOLleo
hk5FPoM3rEPR6Lui03ZDgOq/EltJvtXVYsQpz6O4iMcRm06B2tKEOZ+B6f3pIQS4
Q5AduZ/r03dKbCwZzwzOUwUeK1ChB0YJtbDTxCWKwr0WLxkvrwo7Dm7Am4GKyoqK
H9WQjWbe9XqGOLlWNmrpX4/L2UnwlsNgCPjidzyRyW10KratCjaBmKfjS9nQKjfX
uHibzJNqgSVFqR7AOakZOAMZeffkLzEbzLfVaH5H/Ao8KbdgoGwk6bftA6iLZGau
REXJKd++/ksjeoxRgRo3qttIcAyAwPD9z8L+NP+erkNo/+Hx31ci8Fs1ibPHjGIH
+iLQCzVt9LLxYIvBBeQ2inXD48U8vAhIwBbEFj90UKE85lUXnpQMfTdNTgJ4dS5D
7hB+R6rLFrLKTLAkxNdiIPaks+sdv7yOa7DD3R7S3eVt7rTxw5YqPsDX8dJ63AQi
4pwrX1ZSZsBkboLwjT3eQPo+hxHbnwo6KZXoGoSOGBMaBVPvIJkh/c1CHIlw6tsl
2z/3zC+Zin06y/RDWGC5LXsG7MXxqYqJlDu9fTb2k/8dmVhAmz9DG7k7DVy6V80y
ABc/b7jbtni1xZAeJudx2uVEFLOnfmDgun5DJyWI5gmX0yjbw2Vbw4orVVU2Wjbh
FhXvIH59xEHZhPndM/c3SOcl1pMtyS/W
-----END CERTIFICATE-----
